target datalayout = "e-m:e-p270:32:32-p271:32:32-p272:64:64-i64:64-i128:128-f80:128-n8:16:32:64-S128"
target triple = "x86_64-pc-linux-gnu"

%union.pthread_mutex_t = type { %struct.__pthread_mutex_s }
%struct.__pthread_mutex_s = type { i32, i32, i32, i32, i32, i16, i16, %struct.__pthread_internal_list }
%struct.__pthread_internal_list = type { ptr, ptr }
%struct.WOLFSSL_SESSION = type { i32, i32, %struct.wolfSSL_RefWithMutex, [32 x i8], i8, ptr, i8, i32, i32, [32 x i8], i8, [48 x i8], i16, i8, i8, i16, [20 x i8], i16, i8 }
%struct.wolfSSL_RefWithMutex = type { %union.pthread_mutex_t, i32 }

; Function Attrs: nounwind uwtable
define internal i32 @wolfSSL_DupSessionEx(ptr noundef %0, ptr noundef %1, i32 noundef %2, ptr noundef %3, ptr noundef %4, ptr noundef %5) #0 {
  %7 = alloca i32, align 4
  %8 = alloca ptr, align 8
  %9 = alloca ptr, align 8
  %10 = alloca i32, align 4
  %11 = alloca ptr, align 8
  %12 = alloca ptr, align 8
  %13 = alloca ptr, align 8
  %14 = alloca i64, align 8
  %15 = alloca i32, align 4
  %16 = alloca i32, align 4
  store ptr %0, ptr %8, align 8, !tbaa !53
  store ptr %1, ptr %9, align 8, !tbaa !53
  store i32 %2, ptr %10, align 4, !tbaa !7
  store ptr %3, ptr %11, align 8, !tbaa !21
  store ptr %4, ptr %12, align 8, !tbaa !21
  store ptr %5, ptr %13, align 8, !tbaa !21
  call void @llvm.lifetime.start.p0(i64 8, ptr %14) #9
  store i64 104, ptr %14, align 8, !tbaa !22
  call void @llvm.lifetime.start.p0(i64 4, ptr %15) #9
  store i32 1, ptr %15, align 4, !tbaa !7
  %17 = load ptr, ptr %8, align 8, !tbaa !53
  %18 = call ptr @ClientSessionToSession(ptr noundef %17)
  store ptr %18, ptr %8, align 8, !tbaa !53
  %19 = load ptr, ptr %9, align 8, !tbaa !53
  %20 = call ptr @ClientSessionToSession(ptr noundef %19)
  store ptr %20, ptr %9, align 8, !tbaa !53
  %21 = load ptr, ptr %8, align 8, !tbaa !53
  %22 = icmp eq ptr %21, null
  br i1 %22, label %30, label %23

23:                                               ; preds = %6
  %24 = load ptr, ptr %9, align 8, !tbaa !53
  %25 = icmp eq ptr %24, null
  br i1 %25, label %30, label %26

26:                                               ; preds = %23
  %27 = load ptr, ptr %8, align 8, !tbaa !53
  %28 = load ptr, ptr %9, align 8, !tbaa !53
  %29 = icmp eq ptr %27, %28
  br i1 %29, label %30, label %34

30:                                               ; preds = %26, %23, %6
  br label %31

31:                                               ; preds = %30
  br label %32

32:                                               ; preds = %31
  br label %33

33:                                               ; preds = %32
  store i32 0, ptr %7, align 4
  store i32 1, ptr %16, align 4
  br label %48

34:                                               ; preds = %26
  %35 = load ptr, ptr %9, align 8, !tbaa !53
  %36 = getelementptr inbounds nuw i8, ptr %35, i64 104
  %37 = load ptr, ptr %8, align 8, !tbaa !53
  %38 = getelementptr inbounds nuw i8, ptr %37, i64 104
  call void @llvm.memcpy.p0.p0.i64(ptr align 1 %36, ptr align 1 %38, i64 128, i1 false)
  %39 = load ptr, ptr %9, align 8, !tbaa !53
  %40 = getelementptr inbounds nuw %struct.WOLFSSL_SESSION, ptr %39, i32 0, i32 0
  %41 = load i32, ptr %40, align 8, !tbaa !103
  %42 = icmp ne i32 %41, 2
  br i1 %42, label %43, label %46

43:                                               ; preds = %34
  %44 = load ptr, ptr %9, align 8, !tbaa !53
  %45 = getelementptr inbounds nuw %struct.WOLFSSL_SESSION, ptr %44, i32 0, i32 1
  store i32 -1, ptr %45, align 4, !tbaa !104
  br label %46

46:                                               ; preds = %43, %34
  %47 = load i32, ptr %15, align 4, !tbaa !7
  store i32 %47, ptr %7, align 4
  store i32 1, ptr %16, align 4
  br label %48

48:                                               ; preds = %46, %33
  call void @llvm.lifetime.end.p0(i64 4, ptr %15) #9
  call void @llvm.lifetime.end.p0(i64 8, ptr %14) #9
  %49 = load i32, ptr %7, align 4
  ret i32 %49
}

; Function Attrs: nounwind uwtable
define i32 @wolfSSL_DupSession(ptr noundef %0, ptr noundef %1, i32 noundef %2) #0 {
  %4 = alloca ptr, align 8
  %5 = alloca ptr, align 8
  %6 = alloca i32, align 4
  store ptr %0, ptr %4, align 8, !tbaa !53
  store ptr %1, ptr %5, align 8, !tbaa !53
  store i32 %2, ptr %6, align 4, !tbaa !7
  %7 = load ptr, ptr %4, align 8, !tbaa !53
  %8 = load ptr, ptr %5, align 8, !tbaa !53
  %9 = load i32, ptr %6, align 4, !tbaa !7
  %10 = call i32 @wolfSSL_DupSessionEx(ptr noundef %7, ptr noundef %8, i32 noundef %9, ptr noundef null, ptr noundef null, ptr noundef null)
  ret i32 %10
}

; Function Attrs: nounwind uwtable
define ptr @wolfSSL_NewSession(ptr noundef %0) #0 {
  %2 = alloca ptr, align 8
  %3 = alloca ptr, align 8
  %4 = alloca ptr, align 8
  %5 = alloca i32, align 4
  %6 = alloca ptr, align 8
  %7 = alloca i32, align 4
  store ptr %0, ptr %3, align 8, !tbaa !3
  call void @llvm.lifetime.start.p0(i64 8, ptr %4) #9
  store ptr null, ptr %4, align 8, !tbaa !53
  br label %8

8:                                                ; preds = %1
  br label %9

9:                                                ; preds = %8
  br label %10

10:                                               ; preds = %9
  %11 = call ptr @wolfSSL_Malloc(i64 noundef 232)
  store ptr %11, ptr %4, align 8, !tbaa !53
  %12 = load ptr, ptr %4, align 8, !tbaa !53
  %13 = icmp ne ptr %12, null
  br i1 %13, label %14, label %44

14:                                               ; preds = %10
  call void @llvm.lifetime.start.p0(i64 4, ptr %5) #9
  %15 = load ptr, ptr %4, align 8, !tbaa !53
  call void @llvm.memset.p0.i64(ptr align 8 %15, i8 0, i64 232, i1 false)
  %16 = load ptr, ptr %4, align 8, !tbaa !53
  %17 = getelementptr inbounds nuw %struct.WOLFSSL_SESSION, ptr %16, i32 0, i32 2
  call void @wolfSSL_RefWithMutexInit(ptr noundef %17, ptr noundef %5)
  %18 = load i32, ptr %5, align 4, !tbaa !7
  %19 = icmp ne i32 %18, 0
  br i1 %19, label %20, label %33

20:                                               ; preds = %14
  br label %21

21:                                               ; preds = %20
  br label %22

22:                                               ; preds = %21
  br label %23

23:                                               ; preds = %22
  br label %24

24:                                               ; preds = %23
  call void @llvm.lifetime.start.p0(i64 8, ptr %6) #9
  %25 = load ptr, ptr %4, align 8, !tbaa !53
  store ptr %25, ptr %6, align 8, !tbaa !3
  %26 = load ptr, ptr %6, align 8, !tbaa !3
  %27 = icmp ne ptr %26, null
  br i1 %27, label %28, label %30

28:                                               ; preds = %24
  %29 = load ptr, ptr %6, align 8, !tbaa !3
  call void @wolfSSL_Free(ptr noundef %29)
  br label %30

30:                                               ; preds = %28, %24
  call void @llvm.lifetime.end.p0(i64 8, ptr %6) #9
  br label %31

31:                                               ; preds = %30
  br label %32

32:                                               ; preds = %31
  store ptr null, ptr %2, align 8
  store i32 1, ptr %7, align 4
  br label %41

33:                                               ; preds = %14
  %34 = load ptr, ptr %4, align 8, !tbaa !53
  %35 = getelementptr inbounds nuw %struct.WOLFSSL_SESSION, ptr %34, i32 0, i32 1
  store i32 -1, ptr %35, align 4, !tbaa !104
  %36 = load ptr, ptr %4, align 8, !tbaa !53
  %37 = getelementptr inbounds nuw %struct.WOLFSSL_SESSION, ptr %36, i32 0, i32 0
  store i32 3, ptr %37, align 8, !tbaa !103
  %38 = load ptr, ptr %3, align 8, !tbaa !3
  %39 = load ptr, ptr %4, align 8, !tbaa !53
  %40 = getelementptr inbounds nuw %struct.WOLFSSL_SESSION, ptr %39, i32 0, i32 5
  store ptr %38, ptr %40, align 8, !tbaa !105
  store i32 0, ptr %7, align 4
  br label %41

41:                                               ; preds = %33, %32
  call void @llvm.lifetime.end.p0(i64 4, ptr %5) #9
  %42 = load i32, ptr %7, align 4
  switch i32 %42, label %46 [
    i32 0, label %43
  ]

43:                                               ; preds = %41
  br label %44

44:                                               ; preds = %43, %10
  %45 = load ptr, ptr %4, align 8, !tbaa !53
  store ptr %45, ptr %2, align 8
  store i32 1, ptr %7, align 4
  br label %46

46:                                               ; preds = %44, %41
  call void @llvm.lifetime.end.p0(i64 8, ptr %4) #9
  %47 = load ptr, ptr %2, align 8
  ret ptr %47
}

; Function Attrs: nounwind uwtable
define ptr @wolfSSL_SESSION_dup(ptr noundef %0) #0 {
  %2 = alloca ptr, align 8
  %3 = alloca ptr, align 8
  %4 = alloca ptr, align 8
  %5 = alloca i32, align 4
  store ptr %0, ptr %3, align 8, !tbaa !53
  call void @llvm.lifetime.start.p0(i64 8, ptr %4) #9
  br label %6

6:                                                ; preds = %1
  br label %7

7:                                                ; preds = %6
  br label %8

8:                                                ; preds = %7
  %9 = load ptr, ptr %3, align 8, !tbaa !53
  %10 = call ptr @ClientSessionToSession(ptr noundef %9)
  store ptr %10, ptr %3, align 8, !tbaa !53
  %11 = load ptr, ptr %3, align 8, !tbaa !53
  %12 = icmp eq ptr %11, null
  br i1 %12, label %13, label %14

13:                                               ; preds = %8
  store ptr null, ptr %2, align 8
  store i32 1, ptr %5, align 4
  br label %30

14:                                               ; preds = %8
  %15 = load ptr, ptr %3, align 8, !tbaa !53
  %16 = getelementptr inbounds nuw %struct.WOLFSSL_SESSION, ptr %15, i32 0, i32 5
  %17 = load ptr, ptr %16, align 8, !tbaa !105
  %18 = call ptr @wolfSSL_NewSession(ptr noundef %17)
  store ptr %18, ptr %4, align 8, !tbaa !53
  %19 = load ptr, ptr %4, align 8, !tbaa !53
  %20 = icmp ne ptr %19, null
  br i1 %20, label %21, label %28

21:                                               ; preds = %14
  %22 = load ptr, ptr %3, align 8, !tbaa !53
  %23 = load ptr, ptr %4, align 8, !tbaa !53
  %24 = call i32 @wolfSSL_DupSession(ptr noundef %22, ptr noundef %23, i32 noundef 0)
  %25 = icmp ne i32 %24, 1
  br i1 %25, label %26, label %28

26:                                               ; preds = %21
  %27 = load ptr, ptr %4, align 8, !tbaa !53
  call void @wolfSSL_FreeSession(ptr noundef null, ptr noundef %27)
  store ptr null, ptr %4, align 8, !tbaa !53
  br label %28

28:                                               ; preds = %26, %21, %14
  %29 = load ptr, ptr %4, align 8, !tbaa !53
  store ptr %29, ptr %2, align 8
  store i32 1, ptr %5, align 4
  br label %30

30:                                               ; preds = %28, %13
  call void @llvm.lifetime.end.p0(i64 8, ptr %4) #9
  %31 = load ptr, ptr %2, align 8
  ret ptr %31
}