; Function Attrs: nounwind uwtable
define ptr @wolfSSL_SESSION_dup(ptr noundef captures(address) %0) local_unnamed_addr #0 {
  %2 = alloca i32, align 4
  %3 = tail call ptr @ClientSessionToSession(ptr noundef %0)
  %4 = icmp eq ptr %3, null
  br i1 %4, label %wolfSSL_NewSession.exit.thread, label %5

5:                                                ; preds = %1
  %6 = getelementptr inbounds nuw i8, ptr %3, i64 96
  %7 = load ptr, ptr %6, align 8, !tbaa !86
  %8 = tail call ptr @wolfSSL_Malloc(i64 noundef 232) #22
  %.not.i = icmp eq ptr %8, null
  br i1 %.not.i, label %wolfSSL_NewSession.exit.thread, label %9

9:                                                ; preds = %5
  call void @llvm.lifetime.start.p0(i64 4, ptr nonnull %2) #22
  tail call void @llvm.memset.p0.i64(ptr noundef nonnull align 8 dereferenceable(232) %8, i8 0, i64 232, i1 false)
  %10 = getelementptr inbounds nuw i8, ptr %8, i64 8
  call void @wolfSSL_RefWithMutexInit(ptr noundef nonnull %10, ptr noundef nonnull %2) #22
  %11 = load i32, ptr %2, align 4, !tbaa !3
  %.not14.i = icmp eq i32 %11, 0
  br i1 %.not14.i, label %12, label %wolfSSL_NewSession.exit.thread15

wolfSSL_NewSession.exit.thread15:                 ; preds = %9
  call void @wolfSSL_Free(ptr noundef nonnull %8) #22
  call void @llvm.lifetime.end.p0(i64 4, ptr nonnull %2) #22
  br label %wolfSSL_NewSession.exit.thread

12:                                               ; preds = %9
  %13 = getelementptr inbounds nuw i8, ptr %8, i64 4
  store i32 -1, ptr %13, align 4, !tbaa !85
  store i32 3, ptr %8, align 8, !tbaa !84
  %14 = getelementptr inbounds nuw i8, ptr %8, i64 96
  store ptr %7, ptr %14, align 8, !tbaa !86
  call void @llvm.lifetime.end.p0(i64 4, ptr nonnull %2) #22
  %15 = call ptr @ClientSessionToSession(ptr noundef nonnull %3)
  %16 = call ptr @ClientSessionToSession(ptr noundef nonnull %8)
  %17 = icmp eq ptr %15, null
  %18 = icmp eq ptr %16, null
  %or.cond.i.i = select i1 %17, i1 true, i1 %18
  %19 = icmp eq ptr %15, %16
  %or.cond14.i.i = select i1 %or.cond.i.i, i1 true, i1 %19
  br i1 %or.cond14.i.i, label %wolfSSL_DupSession.exit, label %20

20:                                               ; preds = %12
  %21 = getelementptr inbounds nuw i8, ptr %16, i64 104
  %22 = getelementptr inbounds nuw i8, ptr %15, i64 104
  call void @llvm.memcpy.p0.p0.i64(ptr noundef nonnull align 1 dereferenceable(128) %21, ptr noundef nonnull align 1 dereferenceable(128) %22, i64 128, i1 false)
  %23 = load i32, ptr %16, align 8, !tbaa !84
  %.not.i.i = icmp eq i32 %23, 2
  br i1 %.not.i.i, label %wolfSSL_NewSession.exit.thread, label %24

24:                                               ; preds = %20
  %25 = getelementptr inbounds nuw i8, ptr %16, i64 4
  store i32 -1, ptr %25, align 4, !tbaa !85
  br label %wolfSSL_NewSession.exit.thread

wolfSSL_DupSession.exit:                          ; preds = %12
  call void @wolfSSL_FreeSession(ptr poison, ptr noundef nonnull %8)
  br label %wolfSSL_NewSession.exit.thread

wolfSSL_NewSession.exit.thread:                   ; preds = %20, %24, %5, %wolfSSL_NewSession.exit.thread15, %wolfSSL_DupSession.exit, %1
  %.09 = phi ptr [ null, %1 ], [ null, %wolfSSL_DupSession.exit ], [ null, %wolfSSL_NewSession.exit.thread15 ], [ null, %5 ], [ %8, %24 ], [ %8, %20 ]
  ret ptr %.09
}